target datalayout = "e-m:e-p270:32:32-p271:32:32-p272:64:64-i64:64-i128:128-f80:128-n8:16:32:64-S128"
target triple = "x86_64-pc-linux-gnu"

@.str = private unnamed_addr constant [3 x i8] c"%s\00", align 1
@.str.1 = private unnamed_addr constant [18 x i8] c"Failure, exiting\0A\00", align 1
@.str.2 = private unnamed_addr constant [56 x i8] c"SELECT pg_catalog.set_config('search_path', '', false);\00", align 1

; Function Attrs: nounwind uwtable
define dso_local ptr @connectToServer(ptr noundef %0, ptr noundef %1) #0 {
  %3 = alloca ptr, align 8
  %4 = alloca ptr, align 8
  %5 = alloca ptr, align 8
  store ptr %0, ptr %3, align 8
  store ptr %1, ptr %4, align 8
  call void @llvm.lifetime.start.p0(i64 8, ptr %5) #9
  %6 = load ptr, ptr %3, align 8
  %7 = load ptr, ptr %4, align 8
  %8 = call ptr @get_db_conn(ptr noundef %6, ptr noundef %7)
  store ptr %8, ptr %5, align 8
  %9 = load ptr, ptr %5, align 8
  %10 = icmp eq ptr %9, null
  br i1 %10, label %15, label %11

11:                                               ; preds = %2
  %12 = load ptr, ptr %5, align 8
  %13 = call i32 @PQstatus(ptr noundef %12)
  %14 = icmp ne i32 %13, 0
  br i1 %14, label %15, label %24

15:                                               ; preds = %11, %2
  %16 = load ptr, ptr %5, align 8
  %17 = call ptr @PQerrorMessage(ptr noundef %16)
  call void (i32, ptr, ...) @pg_log(i32 noundef 3, ptr noundef @.str, ptr noundef %17)
  %18 = load ptr, ptr %5, align 8
  %19 = icmp ne ptr %18, null
  br i1 %19, label %20, label %22

20:                                               ; preds = %15
  %21 = load ptr, ptr %5, align 8
  call void @PQfinish(ptr noundef %21)
  br label %22

22:                                               ; preds = %20, %15
  %23 = call i32 (ptr, ...) @pg_printf(ptr noundef @.str.1)
  call void @exit(i32 noundef 1) #10
  unreachable

24:                                               ; preds = %11
  %25 = load ptr, ptr %5, align 8
  %26 = call ptr (ptr, ptr, ...) @executeQueryOrDie(ptr noundef %25, ptr noundef @.str.2)
  call void @PQclear(ptr noundef %26)
  %27 = load ptr, ptr %5, align 8
  call void @llvm.lifetime.end.p0(i64 8, ptr %5) #9
  ret ptr %27
}