; Function Attrs: nounwind uwtable
define dso_local nonnull ptr @connectToServer(ptr noundef readonly captures(none) %0, ptr noundef %1) local_unnamed_addr #0 {
  %3 = tail call fastcc ptr @get_db_conn(ptr noundef %0, ptr noundef %1)
  %4 = icmp eq ptr %3, null
  br i1 %4, label %.critedge, label %5

5:                                                ; preds = %2
  %6 = tail call i32 @PQstatus(ptr noundef nonnull %3) #10
  %.not = icmp eq i32 %6, 0
  br i1 %.not, label %12, label %7

7:                                                ; preds = %5
  %8 = tail call ptr @PQerrorMessage(ptr noundef nonnull %3) #10
  tail call void (i32, ptr, ...) @pg_log(i32 noundef 3, ptr noundef nonnull @.str, ptr noundef %8) #10
  tail call void @PQfinish(ptr noundef nonnull %3) #10
  br label %10

.critedge:                                        ; preds = %2
  %9 = tail call ptr @PQerrorMessage(ptr noundef null) #10
  tail call void (i32, ptr, ...) @pg_log(i32 noundef 3, ptr noundef nonnull @.str, ptr noundef %9) #10
  br label %10

10:                                               ; preds = %.critedge, %7
  %11 = tail call i32 (ptr, ...) @pg_printf(ptr noundef nonnull @.str.1) #10
  tail call void @exit(i32 noundef 1) #11
  unreachable

12:                                               ; preds = %5
  %13 = tail call ptr (ptr, ptr, ...) @executeQueryOrDie(ptr noundef nonnull %3, ptr noundef nonnull @.str.2)
  tail call void @PQclear(ptr noundef %13) #10
  ret ptr %3
}